; ModuleID = '16/699.c'
source_filename = "16/699.c"
target datalayout = "e-m:e-p270:32:32-p271:32:32-p272:64:64-i64:64-f80:128-n8:16:32:64-S128"
target triple = "x86_64-pc-linux-gnu"

@.str = private unnamed_addr constant [3 x i8] c"%d\00", align 1
@.str.1 = private unnamed_addr constant [6 x i8] c"00001\00", align 1
@.str.2 = private unnamed_addr constant [9 x i8] c"%d%d%d%d\00", align 1
@.str.3 = private unnamed_addr constant [7 x i8] c"%d%d%d\00", align 1
@.str.4 = private unnamed_addr constant [5 x i8] c"%d%d\00", align 1

; Function Attrs: noinline nounwind uwtable
define dso_local i32 @main() #0 {
  %1 = alloca i32, align 4
  %2 = alloca i32, align 4
  %3 = alloca i32, align 4
  %4 = alloca i32, align 4
  %5 = alloca i32, align 4
  %6 = alloca i32, align 4
  %7 = alloca i32, align 4
  %8 = alloca i32, align 4
  store i32 0, i32* %1, align 4
  %9 = call i32 (i8*, ...) @__isoc99_scanf(i8* getelementptr inbounds ([3 x i8], [3 x i8]* @.str, i64 0, i64 0), i32* %7)
  %10 = load i32, i32* %7, align 4
  %11 = sdiv i32 %10, 10000
  store i32 %11, i32* %2, align 4
  %12 = load i32, i32* %7, align 4
  %13 = sdiv i32 %12, 1000
  store i32 %13, i32* %3, align 4
  %14 = load i32, i32* %7, align 4
  %15 = sdiv i32 %14, 100
  store i32 %15, i32* %4, align 4
  %16 = load i32, i32* %7, align 4
  %17 = sdiv i32 %16, 10
  store i32 %17, i32* %5, align 4
  %18 = load i32, i32* %7, align 4
  %19 = sdiv i32 %18, 1
  store i32 %19, i32* %6, align 4
  %20 = load i32, i32* %2, align 4
  %21 = icmp sgt i32 %20, 0
  br i1 %21, label %22, label %24

22:                                               ; preds = %0
  %23 = call i32 (i8*, ...) @printf(i8* getelementptr inbounds ([6 x i8], [6 x i8]* @.str.1, i64 0, i64 0))
  br label %96

24:                                               ; preds = %0
  %25 = load i32, i32* %3, align 4
  %26 = icmp sgt i32 %25, 0
  br i1 %26, label %27, label %56

27:                                               ; preds = %24
  %28 = load i32, i32* %7, align 4
  %29 = load i32, i32* %3, align 4
  %30 = mul nsw i32 %29, 1000
  %31 = sub nsw i32 %28, %30
  %32 = sdiv i32 %31, 100
  store i32 %32, i32* %4, align 4
  %33 = load i32, i32* %7, align 4
  %34 = load i32, i32* %3, align 4
  %35 = mul nsw i32 %34, 1000
  %36 = sub nsw i32 %33, %35
  %37 = load i32, i32* %4, align 4
  %38 = mul nsw i32 %37, 100
  %39 = sub nsw i32 %36, %38
  %40 = sdiv i32 %39, 10
  store i32 %40, i32* %5, align 4
  %41 = load i32, i32* %7, align 4
  %42 = load i32, i32* %3, align 4
  %43 = mul nsw i32 %42, 1000
  %44 = sub nsw i32 %41, %43
  %45 = load i32, i32* %4, align 4
  %46 = mul nsw i32 %45, 100
  %47 = sub nsw i32 %44, %46
  %48 = load i32, i32* %5, align 4
  %49 = mul nsw i32 %48, 10
  %50 = sub nsw i32 %47, %49
  store i32 %50, i32* %6, align 4
  %51 = load i32, i32* %6, align 4
  %52 = load i32, i32* %5, align 4
  %53 = load i32, i32* %4, align 4
  %54 = load i32, i32* %3, align 4
  %55 = call i32 (i8*, ...) @printf(i8* getelementptr inbounds ([9 x i8], [9 x i8]* @.str.2, i64 0, i64 0), i32 %51, i32 %52, i32 %53, i32 %54)
  br label %95

56:                                               ; preds = %24
  %57 = load i32, i32* %4, align 4
  %58 = icmp sgt i32 %57, 0
  br i1 %58, label %59, label %79

59:                                               ; preds = %56
  %60 = load i32, i32* %7, align 4
  %61 = load i32, i32* %4, align 4
  %62 = mul nsw i32 %61, 100
  %63 = sub nsw i32 %60, %62
  %64 = sdiv i32 %63, 10
  store i32 %64, i32* %5, align 4
  %65 = load i32, i32* %7, align 4
  %66 = load i32, i32* %3, align 4
  %67 = mul nsw i32 %66, 1000
  %68 = sub nsw i32 %65, %67
  %69 = load i32, i32* %4, align 4
  %70 = mul nsw i32 %69, 100
  %71 = sub nsw i32 %68, %70
  %72 = load i32, i32* %5, align 4
  %73 = mul nsw i32 %72, 10
  %74 = sub nsw i32 %71, %73
  store i32 %74, i32* %6, align 4
  %75 = load i32, i32* %6, align 4
  %76 = load i32, i32* %5, align 4
  %77 = load i32, i32* %4, align 4
  %78 = call i32 (i8*, ...) @printf(i8* getelementptr inbounds ([7 x i8], [7 x i8]* @.str.3, i64 0, i64 0), i32 %75, i32 %76, i32 %77)
  br label %94

79:                                               ; preds = %56
  %80 = load i32, i32* %5, align 4
  %81 = icmp sgt i32 %80, 0
  br i1 %81, label %82, label %90

82:                                               ; preds = %79
  %83 = load i32, i32* %7, align 4
  %84 = load i32, i32* %5, align 4
  %85 = mul nsw i32 %84, 10
  %86 = sub nsw i32 %83, %85
  store i32 %86, i32* %6, align 4
  %87 = load i32, i32* %6, align 4
  %88 = load i32, i32* %5, align 4
  %89 = call i32 (i8*, ...) @printf(i8* getelementptr inbounds ([5 x i8], [5 x i8]* @.str.4, i64 0, i64 0), i32 %87, i32 %88)
  br label %93

90:                                               ; preds = %79
  %91 = load i32, i32* %6, align 4
  %92 = call i32 (i8*, ...) @printf(i8* getelementptr inbounds ([3 x i8], [3 x i8]* @.str, i64 0, i64 0), i32 %91)
  br label %93

93:                                               ; preds = %90, %82
  br label %94

94:                                               ; preds = %93, %59
  br label %95

95:                                               ; preds = %94, %27
  br label %96

96:                                               ; preds = %95, %22
  ret i32 0
}

declare dso_local i32 @__isoc99_scanf(i8*, ...) #1

declare dso_local i32 @printf(i8*, ...) #1


!llvm.module.flags = !{!0}
!llvm.ident = !{!1}

!0 = !{i32 1, !"wchar_size", i32 4}
!1 = !{!"clang version 10.0.0-4ubuntu1 "}
